target datalayout = "e-m:e-p270:32:32-p271:32:32-p272:64:64-i64:64-i128:128-f80:128-n8:16:32:64-S128"
target triple = "x86_64-pc-linux-gnu"

%struct.XML_Parser_Struct = type { i32, ptr, ptr, ptr, ptr, ptr, ptr, ptr, ptr, ptr, ptr, ptr, ptr, ptr, ptr }
%struct._xmlParserCtxt = type { ptr, ptr, ptr, i32, i32, ptr, ptr, i32, i32, ptr, i32, i32, ptr, ptr, i32, i32, ptr, i32, %struct._xmlParserNodeInfoSeq, i32, i32, i32, i32, i32, i32, %struct._xmlValidCtxt, i32, i32, ptr, ptr, i32, i32, ptr, i64, i64, i32, i32, i32, ptr, ptr, ptr, ptr, i32, i32, ptr, i32, ptr, i32, i32, i32, i32, ptr, i32, i32, ptr, i32, i32, ptr, ptr, i32, i32, ptr, ptr, ptr, i32, i32, i32, ptr, ptr, ptr, ptr, ptr, i32, i32, i32, i32, ptr, i32, ptr, %struct._xmlError, i32, i64, i64, ptr, i32, i32, ptr, i32, i64 }
%struct._xmlParserNodeInfoSeq = type { i64, i64, ptr }
%struct._xmlValidCtxt = type { ptr, ptr, ptr, ptr, i32, i32, ptr, i32, ptr, i32, ptr, i32, i32, ptr, ptr, ptr }
%struct._xmlError = type { i32, i32, ptr, i32, ptr, i32, ptr, ptr, ptr, i32, i32, ptr, ptr }
%struct._xmlEntity = type { ptr, i32, ptr, ptr, ptr, ptr, ptr, ptr, ptr, ptr, ptr, i32, i32, ptr, ptr, ptr, ptr, i32, i32 }

@xmlFree = external global ptr, align 8
@xmlMalloc = external global ptr, align 8

; Function Attrs: nounwind uwtable
define internal void @build_entity(ptr noundef %0, i64 noundef %1, ptr noundef %2, ptr noundef %3) #0 {
  %5 = alloca ptr, align 8
  %6 = alloca i64, align 8
  %7 = alloca ptr, align 8
  %8 = alloca ptr, align 8
  store ptr %0, ptr %5, align 8, !tbaa !4
  store i64 %1, ptr %6, align 8, !tbaa !83
  store ptr %2, ptr %7, align 8, !tbaa !96
  store ptr %3, ptr %8, align 8, !tbaa !97
  %9 = load i64, ptr %6, align 8, !tbaa !83
  %10 = add i64 %9, 2
  %11 = load ptr, ptr %8, align 8, !tbaa !97
  store i64 %10, ptr %11, align 8, !tbaa !83
  %12 = load ptr, ptr @xmlMalloc, align 8, !tbaa !53
  %13 = load ptr, ptr %8, align 8, !tbaa !97
  %14 = load i64, ptr %13, align 8, !tbaa !83
  %15 = add i64 %14, 1
  %16 = call ptr %12(i64 noundef %15)
  %17 = load ptr, ptr %7, align 8, !tbaa !96
  store ptr %16, ptr %17, align 8, !tbaa !4
  %18 = load ptr, ptr %7, align 8, !tbaa !96
  %19 = load ptr, ptr %18, align 8, !tbaa !4
  %20 = getelementptr inbounds i8, ptr %19, i64 0
  store i8 38, ptr %20, align 1, !tbaa !44
  %21 = load ptr, ptr %7, align 8, !tbaa !96
  %22 = load ptr, ptr %21, align 8, !tbaa !4
  %23 = getelementptr inbounds i8, ptr %22, i64 1
  %24 = load ptr, ptr %5, align 8, !tbaa !4
  %25 = load i64, ptr %6, align 8, !tbaa !83
  call void @llvm.memcpy.p0.p0.i64(ptr align 1 %23, ptr align 1 %24, i64 %25, i1 false)
  %26 = load ptr, ptr %7, align 8, !tbaa !96
  %27 = load ptr, ptr %26, align 8, !tbaa !4
  %28 = load i64, ptr %6, align 8, !tbaa !83
  %29 = add i64 %28, 1
  %30 = getelementptr inbounds nuw i8, ptr %27, i64 %29
  store i8 59, ptr %30, align 1, !tbaa !44
  %31 = load ptr, ptr %7, align 8, !tbaa !96
  %32 = load ptr, ptr %31, align 8, !tbaa !4
  %33 = load ptr, ptr %8, align 8, !tbaa !97
  %34 = load i64, ptr %33, align 8, !tbaa !83
  %35 = getelementptr inbounds nuw i8, ptr %32, i64 %34
  store i8 0, ptr %35, align 1, !tbaa !44
  ret void
}

; Function Attrs: nounwind uwtable
define internal ptr @get_entity(ptr noundef %0, ptr noundef %1) #0 {
  %3 = alloca ptr, align 8
  %4 = alloca ptr, align 8
  %5 = alloca ptr, align 8
  %6 = alloca ptr, align 8
  %7 = alloca ptr, align 8
  %8 = alloca i64, align 8
  store ptr %0, ptr %3, align 8, !tbaa !53
  store ptr %1, ptr %4, align 8, !tbaa !4
  call void @llvm.lifetime.start.p0(i64 8, ptr %5) #8
  %9 = load ptr, ptr %3, align 8, !tbaa !53
  store ptr %9, ptr %5, align 8, !tbaa !11
  call void @llvm.lifetime.start.p0(i64 8, ptr %6) #8
  store ptr null, ptr %6, align 8, !tbaa !85
  %10 = load ptr, ptr %5, align 8, !tbaa !11
  %11 = getelementptr inbounds nuw %struct.XML_Parser_Struct, ptr %10, i32 0, i32 3
  %12 = load ptr, ptr %11, align 8, !tbaa !18
  %13 = getelementptr inbounds nuw %struct._xmlParserCtxt, ptr %12, i32 0, i32 37
  %14 = load i32, ptr %13, align 8, !tbaa !87
  %15 = icmp eq i32 %14, 0
  br i1 %15, label %16, label %134

16:                                               ; preds = %2
  %17 = load ptr, ptr %4, align 8, !tbaa !4
  %18 = call ptr @xmlGetPredefinedEntity(ptr noundef %17)
  store ptr %18, ptr %6, align 8, !tbaa !85
  %19 = load ptr, ptr %6, align 8, !tbaa !85
  %20 = icmp eq ptr %19, null
  br i1 %20, label %21, label %29

21:                                               ; preds = %16
  %22 = load ptr, ptr %5, align 8, !tbaa !11
  %23 = getelementptr inbounds nuw %struct.XML_Parser_Struct, ptr %22, i32 0, i32 3
  %24 = load ptr, ptr %23, align 8, !tbaa !18
  %25 = getelementptr inbounds nuw %struct._xmlParserCtxt, ptr %24, i32 0, i32 2
  %26 = load ptr, ptr %25, align 8, !tbaa !84
  %27 = load ptr, ptr %4, align 8, !tbaa !4
  %28 = call ptr @xmlGetDocEntity(ptr noundef %26, ptr noundef %27)
  store ptr %28, ptr %6, align 8, !tbaa !85
  br label %29

29:                                               ; preds = %21, %16
  %30 = load ptr, ptr %6, align 8, !tbaa !85
  %31 = icmp eq ptr %30, null
  br i1 %31, label %39, label %32

32:                                               ; preds = %29
  %33 = load ptr, ptr %5, align 8, !tbaa !11
  %34 = getelementptr inbounds nuw %struct.XML_Parser_Struct, ptr %33, i32 0, i32 3
  %35 = load ptr, ptr %34, align 8, !tbaa !18
  %36 = getelementptr inbounds nuw %struct._xmlParserCtxt, ptr %35, i32 0, i32 26
  %37 = load i32, ptr %36, align 8, !tbaa !88
  %38 = icmp eq i32 %37, 7
  br i1 %38, label %39, label %133

39:                                               ; preds = %32, %29
  %40 = load ptr, ptr %6, align 8, !tbaa !85
  %41 = icmp eq ptr %40, null
  br i1 %41, label %57, label %42

42:                                               ; preds = %39
  %43 = load ptr, ptr %6, align 8, !tbaa !85
  %44 = getelementptr inbounds nuw %struct._xmlEntity, ptr %43, i32 0, i32 12
  %45 = load i32, ptr %44, align 4, !tbaa !89
  %46 = icmp eq i32 %45, 1
  br i1 %46, label %57, label %47

47:                                               ; preds = %42
  %48 = load ptr, ptr %6, align 8, !tbaa !85
  %49 = getelementptr inbounds nuw %struct._xmlEntity, ptr %48, i32 0, i32 12
  %50 = load i32, ptr %49, align 4, !tbaa !89
  %51 = icmp eq i32 %50, 4
  br i1 %51, label %57, label %52

52:                                               ; preds = %47
  %53 = load ptr, ptr %6, align 8, !tbaa !85
  %54 = getelementptr inbounds nuw %struct._xmlEntity, ptr %53, i32 0, i32 12
  %55 = load i32, ptr %54, align 4, !tbaa !89
  %56 = icmp eq i32 %55, 6
  br i1 %56, label %57, label %115

57:                                               ; preds = %52, %47, %42, %39
  %58 = load ptr, ptr %5, align 8, !tbaa !11
  %59 = getelementptr inbounds nuw %struct.XML_Parser_Struct, ptr %58, i32 0, i32 9
  %60 = load ptr, ptr %59, align 8, !tbaa !60
  %61 = icmp ne ptr %60, null
  br i1 %61, label %62, label %91

62:                                               ; preds = %57
  %63 = load ptr, ptr %6, align 8, !tbaa !85
  %64 = icmp ne ptr %63, null
  br i1 %64, label %65, label %75

65:                                               ; preds = %62
  %66 = load ptr, ptr %6, align 8, !tbaa !85
  %67 = getelementptr inbounds nuw %struct._xmlEntity, ptr %66, i32 0, i32 12
  %68 = load i32, ptr %67, align 4, !tbaa !89
  %69 = icmp eq i32 %68, 6
  br i1 %69, label %70, label %75

70:                                               ; preds = %65
  %71 = load ptr, ptr %5, align 8, !tbaa !11
  %72 = getelementptr inbounds nuw %struct.XML_Parser_Struct, ptr %71, i32 0, i32 6
  %73 = load ptr, ptr %72, align 8, !tbaa !57
  %74 = icmp ne ptr %73, null
  br i1 %74, label %91, label %75

75:                                               ; preds = %70, %65, %62
  call void @llvm.lifetime.start.p0(i64 8, ptr %7) #8
  call void @llvm.lifetime.start.p0(i64 8, ptr %8) #8
  %76 = load ptr, ptr %4, align 8, !tbaa !4
  %77 = load ptr, ptr %4, align 8, !tbaa !4
  %78 = call i32 @xmlStrlen(ptr noundef %77)
  %79 = sext i32 %78 to i64
  call void @build_entity(ptr noundef %76, i64 noundef %79, ptr noundef %7, ptr noundef %8)
  %80 = load ptr, ptr %5, align 8, !tbaa !11
  %81 = getelementptr inbounds nuw %struct.XML_Parser_Struct, ptr %80, i32 0, i32 9
  %82 = load ptr, ptr %81, align 8, !tbaa !60
  %83 = load ptr, ptr %5, align 8, !tbaa !11
  %84 = getelementptr inbounds nuw %struct.XML_Parser_Struct, ptr %83, i32 0, i32 2
  %85 = load ptr, ptr %84, align 8, !tbaa !54
  %86 = load ptr, ptr %7, align 8, !tbaa !4
  %87 = load i64, ptr %8, align 8, !tbaa !83
  %88 = trunc i64 %87 to i32
  call void %82(ptr noundef %85, ptr noundef %86, i32 noundef %88)
  %89 = load ptr, ptr @xmlFree, align 8, !tbaa !53
  %90 = load ptr, ptr %7, align 8, !tbaa !4
  call void %89(ptr noundef %90)
  call void @llvm.lifetime.end.p0(i64 8, ptr %8) #8
  call void @llvm.lifetime.end.p0(i64 8, ptr %7) #8
  br label %114

91:                                               ; preds = %70, %57
  %92 = load ptr, ptr %5, align 8, !tbaa !11
  %93 = getelementptr inbounds nuw %struct.XML_Parser_Struct, ptr %92, i32 0, i32 6
  %94 = load ptr, ptr %93, align 8, !tbaa !57
  %95 = icmp ne ptr %94, null
  br i1 %95, label %96, label %113

96:                                               ; preds = %91
  %97 = load ptr, ptr %6, align 8, !tbaa !85
  %98 = icmp ne ptr %97, null
  br i1 %98, label %99, label %113

99:                                               ; preds = %96
  %100 = load ptr, ptr %5, align 8, !tbaa !11
  %101 = getelementptr inbounds nuw %struct.XML_Parser_Struct, ptr %100, i32 0, i32 6
  %102 = load ptr, ptr %101, align 8, !tbaa !57
  %103 = load ptr, ptr %5, align 8, !tbaa !11
  %104 = getelementptr inbounds nuw %struct.XML_Parser_Struct, ptr %103, i32 0, i32 2
  %105 = load ptr, ptr %104, align 8, !tbaa !54
  %106 = load ptr, ptr %6, align 8, !tbaa !85
  %107 = getelementptr inbounds nuw %struct._xmlEntity, ptr %106, i32 0, i32 10
  %108 = load ptr, ptr %107, align 8, !tbaa !92
  %109 = load ptr, ptr %6, align 8, !tbaa !85
  %110 = getelementptr inbounds nuw %struct._xmlEntity, ptr %109, i32 0, i32 10
  %111 = load ptr, ptr %110, align 8, !tbaa !92
  %112 = call i32 @xmlStrlen(ptr noundef %111)
  call void %102(ptr noundef %105, ptr noundef %108, i32 noundef %112)
  br label %113

113:                                              ; preds = %99, %96, %91
  br label %114

114:                                              ; preds = %113, %75
  br label %132

115:                                              ; preds = %52
  %116 = load ptr, ptr %6, align 8, !tbaa !85
  %117 = getelementptr inbounds nuw %struct._xmlEntity, ptr %116, i32 0, i32 12
  %118 = load i32, ptr %117, align 4, !tbaa !89
  %119 = icmp eq i32 %118, 2
  br i1 %119, label %120, label %131

120:                                              ; preds = %115
  %121 = load ptr, ptr %3, align 8, !tbaa !53
  %122 = load ptr, ptr %6, align 8, !tbaa !85
  %123 = getelementptr inbounds nuw %struct._xmlEntity, ptr %122, i32 0, i32 2
  %124 = load ptr, ptr %123, align 8, !tbaa !93
  %125 = load ptr, ptr %6, align 8, !tbaa !85
  %126 = getelementptr inbounds nuw %struct._xmlEntity, ptr %125, i32 0, i32 14
  %127 = load ptr, ptr %126, align 8, !tbaa !94
  %128 = load ptr, ptr %6, align 8, !tbaa !85
  %129 = getelementptr inbounds nuw %struct._xmlEntity, ptr %128, i32 0, i32 13
  %130 = load ptr, ptr %129, align 8, !tbaa !95
  call void @external_entity_ref_handler(ptr noundef %121, ptr noundef %124, ptr noundef %127, ptr noundef %130)
  br label %131

131:                                              ; preds = %120, %115
  br label %132

132:                                              ; preds = %131, %114
  br label %133

133:                                              ; preds = %132, %32
  br label %134

134:                                              ; preds = %133, %2
  %135 = load ptr, ptr %6, align 8, !tbaa !85
  call void @llvm.lifetime.end.p0(i64 8, ptr %6) #8
  call void @llvm.lifetime.end.p0(i64 8, ptr %5) #8
  ret ptr %135
}