; Function Attrs: nounwind uwtable
define internal ptr @get_entity(ptr noundef %0, ptr noundef %1) #0 {
  %3 = getelementptr inbounds nuw i8, ptr %0, i64 24
  %4 = load ptr, ptr %3, align 8, !tbaa !4
  %5 = getelementptr inbounds nuw i8, ptr %4, i64 336
  %6 = load i32, ptr %5, align 8, !tbaa !74
  %7 = icmp eq i32 %6, 0
  br i1 %7, label %8, label %68

8:                                                ; preds = %2
  %9 = tail call ptr @xmlGetPredefinedEntity(ptr noundef %1) #11
  %10 = icmp eq ptr %9, null
  br i1 %10, label %11, label %.thread

11:                                               ; preds = %8
  %12 = load ptr, ptr %3, align 8, !tbaa !4
  %13 = getelementptr inbounds nuw i8, ptr %12, i64 16
  %14 = load ptr, ptr %13, align 8, !tbaa !73
  %15 = tail call ptr @xmlGetDocEntity(ptr noundef %14, ptr noundef %1) #11
  %16 = icmp eq ptr %15, null
  br i1 %16, label %.critedge.thread, label %.thread

.thread:                                          ; preds = %8, %11
  %.144 = phi ptr [ %15, %11 ], [ %9, %8 ]
  %17 = load ptr, ptr %3, align 8, !tbaa !4
  %18 = getelementptr inbounds nuw i8, ptr %17, i64 272
  %19 = load i32, ptr %18, align 8, !tbaa !75
  %20 = icmp eq i32 %19, 7
  br i1 %20, label %21, label %68

21:                                               ; preds = %.thread
  %22 = getelementptr inbounds nuw i8, ptr %.144, i64 92
  %23 = load i32, ptr %22, align 4, !tbaa !76
  switch i32 %23, label %68 [
    i32 1, label %.critedge
    i32 4, label %.critedge
    i32 6, label %.critedge
    i32 2, label %61
  ]

.critedge:                                        ; preds = %21, %21, %21
  %24 = getelementptr inbounds nuw i8, ptr %0, i64 72
  %25 = load ptr, ptr %24, align 8, !tbaa !53
  %.not = icmp eq ptr %25, null
  br i1 %.not, label %.critedge._crit_edge, label %28

.critedge.thread:                                 ; preds = %11
  %26 = getelementptr inbounds nuw i8, ptr %0, i64 72
  %27 = load ptr, ptr %26, align 8, !tbaa !53
  %.not47 = icmp eq ptr %27, null
  br i1 %.not47, label %.critedge._crit_edge, label %.thread51

.critedge._crit_edge:                             ; preds = %.critedge.thread, %.critedge
  %.14550 = phi ptr [ null, %.critedge.thread ], [ %.144, %.critedge ]
  %.phi.trans.insert = getelementptr inbounds nuw i8, ptr %0, i64 48
  %.pre = load ptr, ptr %.phi.trans.insert, align 8, !tbaa !50
  br label %51

28:                                               ; preds = %.critedge
  %29 = getelementptr inbounds nuw i8, ptr %.144, i64 92
  %30 = load i32, ptr %29, align 4, !tbaa !76
  %31 = icmp eq i32 %30, 6
  br i1 %31, label %32, label %.thread51

32:                                               ; preds = %28
  %33 = getelementptr inbounds nuw i8, ptr %0, i64 48
  %34 = load ptr, ptr %33, align 8, !tbaa !50
  %.not37 = icmp eq ptr %34, null
  br i1 %.not37, label %.thread51, label %51

.thread51:                                        ; preds = %.critedge.thread, %32, %28
  %.1454953 = phi ptr [ %.144, %32 ], [ %.144, %28 ], [ null, %.critedge.thread ]
  %35 = phi ptr [ %24, %32 ], [ %24, %28 ], [ %26, %.critedge.thread ]
  %36 = tail call i32 @xmlStrlen(ptr noundef %1) #11
  %37 = sext i32 %36 to i64
  %38 = add nsw i64 %37, 2
  %39 = load ptr, ptr @xmlMalloc, align 8, !tbaa !72
  %40 = add nsw i64 %37, 3
  %41 = tail call ptr %39(i64 noundef %40) #11
  store i8 38, ptr %41, align 1, !tbaa !46
  %42 = getelementptr inbounds nuw i8, ptr %41, i64 1
  tail call void @llvm.memcpy.p0.p0.i64(ptr nonnull align 1 %42, ptr readonly align 1 %1, i64 range(i64 -2147483648, 2147483648) %37, i1 false)
  %43 = getelementptr i8, ptr %41, i64 %37
  %44 = getelementptr i8, ptr %43, i64 1
  store i8 59, ptr %44, align 1, !tbaa !46
  %45 = getelementptr inbounds nuw i8, ptr %41, i64 %38
  store i8 0, ptr %45, align 1, !tbaa !46
  %46 = load ptr, ptr %35, align 8, !tbaa !53
  %47 = getelementptr inbounds nuw i8, ptr %0, i64 16
  %48 = load ptr, ptr %47, align 8, !tbaa !47
  %49 = trunc i64 %38 to i32
  tail call void %46(ptr noundef %48, ptr noundef nonnull %41, i32 noundef %49) #11
  %50 = load ptr, ptr @xmlFree, align 8, !tbaa !72
  tail call void %50(ptr noundef nonnull %41) #11
  br label %68

51:                                               ; preds = %.critedge._crit_edge, %32
  %.14548 = phi ptr [ %.14550, %.critedge._crit_edge ], [ %.144, %32 ]
  %52 = phi ptr [ %.pre, %.critedge._crit_edge ], [ %34, %32 ]
  %53 = icmp ne ptr %52, null
  %54 = icmp ne ptr %.14548, null
  %or.cond = and i1 %54, %53
  br i1 %or.cond, label %55, label %68

55:                                               ; preds = %51
  %56 = getelementptr inbounds nuw i8, ptr %0, i64 16
  %57 = load ptr, ptr %56, align 8, !tbaa !47
  %58 = getelementptr inbounds nuw i8, ptr %.14548, i64 80
  %59 = load ptr, ptr %58, align 8, !tbaa !80
  %60 = tail call i32 @xmlStrlen(ptr noundef %59) #11
  tail call void %52(ptr noundef %57, ptr noundef %59, i32 noundef %60) #11
  br label %68

61:                                               ; preds = %21
  %62 = getelementptr inbounds nuw i8, ptr %.144, i64 16
  %63 = load ptr, ptr %62, align 8, !tbaa !81
  %64 = getelementptr inbounds nuw i8, ptr %.144, i64 104
  %65 = load ptr, ptr %64, align 8, !tbaa !82
  %66 = getelementptr inbounds nuw i8, ptr %.144, i64 96
  %67 = load ptr, ptr %66, align 8, !tbaa !83
  tail call fastcc void @external_entity_ref_handler(ptr noundef nonnull %0, ptr noundef %63, ptr noundef %65, ptr noundef %67)
  br label %68

68:                                               ; preds = %21, %.thread, %61, %.thread51, %55, %51, %2
  %.0 = phi ptr [ %.14548, %55 ], [ %.14548, %51 ], [ %.1454953, %.thread51 ], [ %.144, %61 ], [ %.144, %.thread ], [ null, %2 ], [ %.144, %21 ]
  ret ptr %.0
}